ASxxxx Linker V03.00 + NoICE + sdld,  page 1.
Hexadecimal  [32-Bits]

Area                                    Addr        Size        Decimal Bytes (Attributes)
--------------------------------        ----        ----        ------- ----- ------------
.  .ABS.                            00000000    00000000 =           0. bytes (ABS,CON)

      Value  Global                              Global Defined In Module
      -----  --------------------------------   ------------------------
     FFFFFFFF  s_SSEG                          
     00000000  .__.ABS.                           
     00000000  l_CABS                          
     00000000  l_DABS                          
     00000000  l__CODE                         
     00000000  s_CABS                          
     00000000  s_DABS                          
     00000000  s__CODE                         
     00000001  l_SSEG                          
     00000001  s_DATA                          
     00000003  l_GSFINAL                       
     0000000C  l_CONST                         
     0000001A  l_GSINIT                        
     00000025  l_DATA                          
     00000026  s_INITIALIZED                   
     00000033  l_INITIALIZED                   
     00000033  l_INITIALIZER                   
     0000006B  l_HOME                          
     00001551  l_CODE                          
     00008000  s_HOME                          
     0000806B  s_GSINIT                        
     00008085  s_GSFINAL                       
     00008088  s_CONST                         
     00008094  s_INITIALIZER                   
     000080C7  s_CODE                          

ASxxxx Linker V03.00 + NoICE + sdld,  page 2.
Hexadecimal  [32-Bits]

Area                                    Addr        Size        Decimal Bytes (Attributes)
--------------------------------        ----        ----        ------- ----- ------------
DATA                                00000001    00000025 =          37. bytes (REL,CON)

      Value  Global                              Global Defined In Module
      -----  --------------------------------   ------------------------
     00000001  _ir_delay                          main
     00000003  _ir_double_click_delay             main
     00000004  _key_delay_2s                      main
     00000006  _DS3231_TimeSturcture              ds3231
     0000000E  _GPS_TimeDataSturcture             gps

ASxxxx Linker V03.00 + NoICE + sdld,  page 3.
Hexadecimal  [32-Bits]

Area                                    Addr        Size        Decimal Bytes (Attributes)
--------------------------------        ----        ----        ------- ----- ------------
INITIALIZED                         00000026    00000033 =          51. bytes (REL,CON)

      Value  Global                              Global Defined In Module
      -----  --------------------------------   ------------------------
     00000026  _nixie_always_on                   main
     00000027  _KEY_StateMachine_Enumeration      main
     00000028  _tube_state                        nixie
     00000029  _nixie_tube1                       nixie
     0000002A  _nixie_tube2                       nixie
     0000002B  _nixie_tube3                       nixie
     0000002C  _nixie_tube4                       nixie
     0000002D  _DS3231_Buf                        ds3231
     00000035  _GPS_RxBuf                         gps
     00000057  _gps_first_send                    gps

ASxxxx Linker V03.00 + NoICE + sdld,  page 4.
Hexadecimal  [32-Bits]

Area                                    Addr        Size        Decimal Bytes (Attributes)
--------------------------------        ----        ----        ------- ----- ------------
SSEG                                FFFFFFFF    00000001 =           1. bytes (REL,CON)

      Value  Global                              Global Defined In Module
      -----  --------------------------------   ------------------------
ASxxxx Linker V03.00 + NoICE + sdld,  page 5.
Hexadecimal  [32-Bits]

Area                                    Addr        Size        Decimal Bytes (Attributes)
--------------------------------        ----        ----        ------- ----- ------------
HOME                                00008000    0000006B =         107. bytes (REL,CON)

      Value  Global                              Global Defined In Module
      -----  --------------------------------   ------------------------
ASxxxx Linker V03.00 + NoICE + sdld,  page 6.
Hexadecimal  [32-Bits]

Area                                    Addr        Size        Decimal Bytes (Attributes)
--------------------------------        ----        ----        ------- ----- ------------
GSINIT                              0000806B    0000001A =          26. bytes (REL,CON)

      Value  Global                              Global Defined In Module
      -----  --------------------------------   ------------------------
ASxxxx Linker V03.00 + NoICE + sdld,  page 7.
Hexadecimal  [32-Bits]

Area                                    Addr        Size        Decimal Bytes (Attributes)
--------------------------------        ----        ----        ------- ----- ------------
GSFINAL                             00008085    00000003 =           3. bytes (REL,CON)

      Value  Global                              Global Defined In Module
      -----  --------------------------------   ------------------------
ASxxxx Linker V03.00 + NoICE + sdld,  page 8.
Hexadecimal  [32-Bits]

Area                                    Addr        Size        Decimal Bytes (Attributes)
--------------------------------        ----        ----        ------- ----- ------------
CONST                               00008088    0000000C =          12. bytes (REL,CON)

      Value  Global                              Global Defined In Module
      -----  --------------------------------   ------------------------
     00008088  _HSIDivFactor                      stm8s_clk
     0000808C  _CLKPrescTable                     stm8s_clk

ASxxxx Linker V03.00 + NoICE + sdld,  page 9.
Hexadecimal  [32-Bits]

Area                                    Addr        Size        Decimal Bytes (Attributes)
--------------------------------        ----        ----        ------- ----- ------------
INITIALIZER                         00008094    00000033 =          51. bytes (REL,CON)

      Value  Global                              Global Defined In Module
      -----  --------------------------------   ------------------------
ASxxxx Linker V03.00 + NoICE + sdld,  page 10.
Hexadecimal  [32-Bits]

Area                                    Addr        Size        Decimal Bytes (Attributes)
--------------------------------        ----        ----        ------- ----- ------------
CODE                                000080C7    00001551 =        5457. bytes (REL,CON)

      Value  Global                              Global Defined In Module
      -----  --------------------------------   ------------------------
     000080C7  _main                              main
     00008178  _TIM4_UPD_OVF_IRQHandler           main
     000081B0  _EXTI_PORTA_IRQHandler             main
     000081B1  _EXTI_PORTC_IRQHandler             main
     000081DD  _EXTI_PORTD_IRQHandler             main
     00008218  _GPIO_Init                         stm8s_gpio
     0000828D  _GPIO_WriteHigh                    stm8s_gpio
     00008294  _GPIO_WriteLow                     stm8s_gpio
     000082A2  _GPIO_ReadInputPin                 stm8s_gpio
     000082A9  _CLK_HSECmd                        stm8s_clk
     000082BC  _CLK_ClockSwitchConfig             stm8s_clk
     00008367  _CLK_GetClockFreq                  stm8s_clk
     000083B7  _SPI_DeInit                        stm8s_spi
     000083CC  _SPI_Init                          stm8s_spi
     0000840A  _SPI_Cmd                           stm8s_spi
     0000841D  _SPI_SendData                      stm8s_spi
     00008424  _SPI_GetFlagStatus                 stm8s_spi
     00008430  _SPI_ClearFlag                     stm8s_spi
     00008437  _UART1_DeInit                      stm8s_uart1
     00008462  _UART1_Init                        stm8s_uart1
     000085DF  _UART1_Cmd                         stm8s_uart1
     000085F2  _UART1_ITConfig                    stm8s_uart1
     0000866A  _UART1_ReceiveData8                stm8s_uart1
     0000866E  _UART1_SendData8                   stm8s_uart1
     00008675  _UART1_GetFlagStatus               stm8s_uart1
     000086B7  _UART1_GetITStatus                 stm8s_uart1
     00008737  _UART1_ClearITPendingBit           stm8s_uart1
     00008748  _BEEP_DeInit                       stm8s_beep
     0000874D  _BEEP_Init                         stm8s_beep
     00008777  _BEEP_Cmd                          stm8s_beep
     0000878A  _EXTI_SetExtIntSensitivity         stm8s_exti
     0000881A  _EXTI_SetTLISensitivity            stm8s_exti
     0000882B  _ITC_GetCPUCC                      stm8s_itc
     0000882E  _ITC_DeInit                        stm8s_itc
     0000884F  _ITC_GetSoftIntStatus              stm8s_itc
     00008855  _ITC_GetSoftwarePriority           stm8s_itc
     000088F8  _ITC_SetSoftwarePriority           stm8s_itc
     000089E1  _TIM4_TimeBaseInit                 stm8s_tim4
     000089EE  _TIM4_Cmd                          stm8s_tim4
     00008A01  _TIM4_ITConfig                     stm8s_tim4
     00008A1E  _TIM4_ARRPreloadConfig             stm8s_tim4
     00008A31  _TIM4_GetITStatus                  stm8s_tim4
     00008A4C  _TIM4_ClearITPendingBit            stm8s_tim4
     00008A53  _I2C_Init                          soft_i2c
     00008A76  _I2C_Start                         soft_i2c
     00008A8D  _I2C_Stop                          soft_i2c
     00008AA7  _I2C_Wait_Ack                      soft_i2c
     00008AD8  _I2C_Ack                           soft_i2c
     00008AEF  _I2C_NAck                          soft_i2c
     00008B06  _I2C_Send_Byte                     soft_i2c
ASxxxx Linker V03.00 + NoICE + sdld,  page 11.
Hexadecimal  [32-Bits]

Area                                    Addr        Size        Decimal Bytes (Attributes)
--------------------------------        ----        ----        ------- ----- ------------
CODE                                000080C7    00001551 =        5457. bytes (REL,CON)

      Value  Global                              Global Defined In Module
      -----  --------------------------------   ------------------------
     00008B4B  _I2C_Read_Byte                     soft_i2c
     00008B84  _I2C_MasterReceiveData             soft_i2c
     00008C05  _I2C_MasterSendData                soft_i2c
     00008C54  _delay_us                          soft_i2c
     00008C59  _NIXIE_Init                        nixie
     00008CE2  _NIXIE_DisplayChar                 nixie
     00008D78  _NIXIE_DisplayTime                 nixie
     00008F49  _DS3231_Init                       ds3231
     00008F4C  _DS3231_GetTime                    ds3231
     0000903C  _DS3231_GPSSetTime                 ds3231
     00009191  _GPS_Init                          gps
     000092C5  _GPS_GetTime                       gps
     00009326  _UART1_RX_IRQHandler               gps
     000094F2  __divulong                         
     0000954C  _strchr                            _strchr
     00009572  __mullong                          
     000095EE  __modsint                          
     00009604  __divsint                          

ASxxxx Linker V03.00 + NoICE + sdld,  page 12.

Files Linked                              [ module(s) ]

Build/Release/main.rel                    [ main ]
Build/Release/stm8s_gpio.rel              [ stm8s_gpio ]
Build/Release/stm8s_clk.rel               [ stm8s_clk ]
Build/Release/stm8s_spi.rel               [ stm8s_spi ]
Build/Release/stm8s_uart1.rel             [ stm8s_uart1 ]
Build/Release/stm8s_beep.rel              [ stm8s_beep ]
Build/Release/stm8s_exti.rel              [ stm8s_exti ]
Build/Release/stm8s_itc.rel               [ stm8s_itc ]
Build/Release/stm8s_tim4.rel              [ stm8s_tim4 ]
Build/Release/soft_i2c.rel                [ soft_i2c ]
Build/Release/nixie.rel                   [ nixie ]
Build/Release/ds3231.rel                  [ ds3231 ]
Build/Release/gps.rel                     [ gps ]


Libraries Linked                          [ object file ]

C:\Program Files\SDCC\bin\..\lib\stm8/stm8.lib
                                          [ _divulong.rel ]
C:\Program Files\SDCC\bin\..\lib\stm8/stm8.lib
                                          [ _strchr.rel ]
C:\Program Files\SDCC\bin\..\lib\stm8/stm8.lib
                                          [ _mullong.rel ]
C:\Program Files\SDCC\bin\..\lib\stm8/stm8.lib
                                          [ _modsint.rel ]
C:\Program Files\SDCC\bin\..\lib\stm8/stm8.lib
                                          [ _divsint.rel ]

ASxxxx Linker V03.00 + NoICE + sdld,  page 13.

User Base Address Definitions

HOME = 0x8000
DATA = 0x0001
SSEG = 0xffffffff

