ASxxxx Linker V03.00 + NoICE + sdld,  page 1.
Hexadecimal  [32-Bits]

Area                                    Addr        Size        Decimal Bytes (Attributes)
--------------------------------        ----        ----        ------- ----- ------------
.  .ABS.                            00000000    00000000 =           0. bytes (ABS,CON)

      Value  Global                              Global Defined In Module
      -----  --------------------------------   ------------------------
     FFFFFFFF  s_SSEG                          
     00000000  .__.ABS.                           
     00000000  l_CABS                          
     00000000  l_DABS                          
     00000000  l__CODE                         
     00000000  s_CABS                          
     00000000  s_DABS                          
     00000000  s__CODE                         
     00000001  l_SSEG                          
     00000001  s_DATA                          
     00000003  l_GSFINAL                       
     0000000C  l_CONST                         
     0000001A  l_GSINIT                        
     00000020  l_DATA                          
     00000021  s_INITIALIZED                   
     0000002D  l_INITIALIZED                   
     0000002D  l_INITIALIZER                   
     00000057  l_HOME                          
     00000E37  l_CODE                          
     00008000  s_HOME                          
     00008057  s_GSINIT                        
     00008071  s_GSFINAL                       
     00008074  s_CONST                         
     00008080  s_INITIALIZER                   
     000080AD  s_CODE                          

ASxxxx Linker V03.00 + NoICE + sdld,  page 2.
Hexadecimal  [32-Bits]

Area                                    Addr        Size        Decimal Bytes (Attributes)
--------------------------------        ----        ----        ------- ----- ------------
DATA                                00000001    00000020 =          32. bytes (REL,CON)

      Value  Global                              Global Defined In Module
      -----  --------------------------------   ------------------------
     00000001  _DS3231_TimeSturcture              ds3231
     00000009  _GPS_TimeDataSturcture             gps

ASxxxx Linker V03.00 + NoICE + sdld,  page 3.
Hexadecimal  [32-Bits]

Area                                    Addr        Size        Decimal Bytes (Attributes)
--------------------------------        ----        ----        ------- ----- ------------
INITIALIZED                         00000021    0000002D =          45. bytes (REL,CON)

      Value  Global                              Global Defined In Module
      -----  --------------------------------   ------------------------
     00000021  _aaaa                              nixie
     00000023  _DS3231_Buf                        ds3231
     0000002B  _GPS_RxBuf                         gps
ASxxxx Linker V03.00 + NoICE + sdld,  page 4.
Hexadecimal  [32-Bits]

Area                                    Addr        Size        Decimal Bytes (Attributes)
--------------------------------        ----        ----        ------- ----- ------------
SSEG                                FFFFFFFF    00000001 =           1. bytes (REL,CON)

      Value  Global                              Global Defined In Module
      -----  --------------------------------   ------------------------
ASxxxx Linker V03.00 + NoICE + sdld,  page 5.
Hexadecimal  [32-Bits]

Area                                    Addr        Size        Decimal Bytes (Attributes)
--------------------------------        ----        ----        ------- ----- ------------
HOME                                00008000    00000057 =          87. bytes (REL,CON)

      Value  Global                              Global Defined In Module
      -----  --------------------------------   ------------------------
ASxxxx Linker V03.00 + NoICE + sdld,  page 6.
Hexadecimal  [32-Bits]

Area                                    Addr        Size        Decimal Bytes (Attributes)
--------------------------------        ----        ----        ------- ----- ------------
GSINIT                              00008057    0000001A =          26. bytes (REL,CON)

      Value  Global                              Global Defined In Module
      -----  --------------------------------   ------------------------
ASxxxx Linker V03.00 + NoICE + sdld,  page 7.
Hexadecimal  [32-Bits]

Area                                    Addr        Size        Decimal Bytes (Attributes)
--------------------------------        ----        ----        ------- ----- ------------
GSFINAL                             00008071    00000003 =           3. bytes (REL,CON)

      Value  Global                              Global Defined In Module
      -----  --------------------------------   ------------------------
ASxxxx Linker V03.00 + NoICE + sdld,  page 8.
Hexadecimal  [32-Bits]

Area                                    Addr        Size        Decimal Bytes (Attributes)
--------------------------------        ----        ----        ------- ----- ------------
CONST                               00008074    0000000C =          12. bytes (REL,CON)

      Value  Global                              Global Defined In Module
      -----  --------------------------------   ------------------------
     00008074  _HSIDivFactor                      stm8s_clk
     00008078  _CLKPrescTable                     stm8s_clk

ASxxxx Linker V03.00 + NoICE + sdld,  page 9.
Hexadecimal  [32-Bits]

Area                                    Addr        Size        Decimal Bytes (Attributes)
--------------------------------        ----        ----        ------- ----- ------------
INITIALIZER                         00008080    0000002D =          45. bytes (REL,CON)

      Value  Global                              Global Defined In Module
      -----  --------------------------------   ------------------------
ASxxxx Linker V03.00 + NoICE + sdld,  page 10.
Hexadecimal  [32-Bits]

Area                                    Addr        Size        Decimal Bytes (Attributes)
--------------------------------        ----        ----        ------- ----- ------------
CODE                                000080AD    00000E37 =        3639. bytes (REL,CON)

      Value  Global                              Global Defined In Module
      -----  --------------------------------   ------------------------
     000080AD  _main                              main
     000080C8  _GPIO_Init                         stm8s_gpio
     0000813D  _GPIO_WriteHigh                    stm8s_gpio
     00008144  _GPIO_WriteLow                     stm8s_gpio
     00008152  _CLK_DeInit                        stm8s_clk
     00008189  _CLK_GetClockFreq                  stm8s_clk
     000081D9  _SPI_DeInit                        stm8s_spi
     000081EE  _SPI_Init                          stm8s_spi
     0000822C  _SPI_Cmd                           stm8s_spi
     0000823F  _SPI_SendData                      stm8s_spi
     00008246  _SPI_GetFlagStatus                 stm8s_spi
     00008252  _SPI_ClearFlag                     stm8s_spi
     00008259  _UART1_DeInit                      stm8s_uart1
     00008284  _UART1_Init                        stm8s_uart1
     00008401  _UART1_Cmd                         stm8s_uart1
     00008414  _UART1_ITConfig                    stm8s_uart1
     0000848C  _UART1_ReceiveData8                stm8s_uart1
     00008490  _UART1_SendData8                   stm8s_uart1
     00008497  _UART1_GetFlagStatus               stm8s_uart1
     000084D9  _UART1_GetITStatus                 stm8s_uart1
     00008559  _UART1_ClearITPendingBit           stm8s_uart1
     0000856A  _BEEP_DeInit                       stm8s_beep
     0000856F  _BEEP_Init                         stm8s_beep
     00008599  _BEEP_Cmd                          stm8s_beep
     000085AC  _I2C_Init                          soft_i2c
     000085CF  _I2C_Start                         soft_i2c
     000085E6  _I2C_Stop                          soft_i2c
     00008600  _I2C_Wait_Ack                      soft_i2c
     00008631  _I2C_Ack                           soft_i2c
     00008648  _I2C_NAck                          soft_i2c
     0000865F  _I2C_Send_Byte                     soft_i2c
     000086A4  _I2C_Read_Byte                     soft_i2c
     000086DD  _I2C_MasterReceiveData             soft_i2c
     0000875E  _I2C_MasterSendData                soft_i2c
     000087AD  _delay_us                          soft_i2c
     000087B2  _delay                             nixie
     000087BD  _NIXIE_Init                        nixie
     00008803  _NIXIE_DisplayChar                 nixie
     00008899  _NIXIE_DisplayTime                 nixie
     00008A7D  _DS3231_Init                       ds3231
     00008A80  _DS3231_GetTime                    ds3231
     00008B70  _GPS_Init                          gps
     00008BA7  _GPS_GetTime                       gps
     00008BF6  _UART1_RX_IRQHandler               gps
     00008DBE  __divulong                         
     00008E18  _strchr                            _strchr
     00008E3E  __modsint                          
     00008E54  __mullong                          
     00008ED0  __divsint                          

ASxxxx Linker V03.00 + NoICE + sdld,  page 11.

Files Linked                              [ module(s) ]

Build/Release/main.rel                    [ main ]
Build/Release/stm8s_gpio.rel              [ stm8s_gpio ]
Build/Release/stm8s_clk.rel               [ stm8s_clk ]
Build/Release/stm8s_spi.rel               [ stm8s_spi ]
Build/Release/stm8s_uart1.rel             [ stm8s_uart1 ]
Build/Release/stm8s_beep.rel              [ stm8s_beep ]
Build/Release/soft_i2c.rel                [ soft_i2c ]
Build/Release/nixie.rel                   [ nixie ]
Build/Release/ds3231.rel                  [ ds3231 ]
Build/Release/gps.rel                     [ gps ]


Libraries Linked                          [ object file ]

C:\Program Files\SDCC\bin\..\lib\stm8/stm8.lib
                                          [ _divulong.rel ]
C:\Program Files\SDCC\bin\..\lib\stm8/stm8.lib
                                          [ _strchr.rel ]
C:\Program Files\SDCC\bin\..\lib\stm8/stm8.lib
                                          [ _modsint.rel ]
C:\Program Files\SDCC\bin\..\lib\stm8/stm8.lib
                                          [ _mullong.rel ]
C:\Program Files\SDCC\bin\..\lib\stm8/stm8.lib
                                          [ _divsint.rel ]

ASxxxx Linker V03.00 + NoICE + sdld,  page 12.

User Base Address Definitions

HOME = 0x8000
DATA = 0x0001
SSEG = 0xffffffff

